target datalayout = "e-m:e-p270:32:32-p271:32:32-p272:64:64-i64:64-i128:128-f80:128-n8:16:32:64-S128"
target triple = "x86_64-pc-linux-gnu"

%struct.dlist_node = type { ptr, ptr }
%struct.ForEachState = type { ptr, i32 }
%struct.CachedPlanSource = type { i32, ptr, ptr, i32, ptr, i32, ptr, ptr, i32, i8, ptr, ptr, ptr, ptr, ptr, ptr, ptr, i32, i8, i8, ptr, i8, i8, i8, i8, i32, %struct.dlist_node, double, double, i64, i64 }
%struct.CachedPlan = type { i32, ptr, i8, i8, i8, i32, i8, i32, i32, i32, ptr }
%struct.List = type { i32, i32, i32, ptr, [0 x %union.ListCell] }
%union.ListCell = type { ptr }
%struct.PlannedStmt = type { i32, i32, i64, i8, i8, i8, i8, i8, i8, i32, ptr, ptr, ptr, ptr, ptr, ptr, ptr, ptr, ptr, ptr, ptr, ptr, ptr, ptr, i32, i32 }

@CurrentMemoryContext = external global ptr, align 8
@TransactionXmin = external global i32, align 4
@.str.10 = private unnamed_addr constant [11 x i8] c"CachedPlan\00", align 1

; Function Attrs: inlinehint nounwind uwtable
define internal ptr @MemoryContextSwitchTo(ptr noundef %0) #3 {
  %2 = alloca ptr, align 8
  %3 = alloca ptr, align 8
  store ptr %0, ptr %2, align 8
  call void @llvm.lifetime.start.p0(i64 8, ptr %3) #8
  %4 = load ptr, ptr @CurrentMemoryContext, align 8
  store ptr %4, ptr %3, align 8
  %5 = load ptr, ptr %2, align 8
  store ptr %5, ptr @CurrentMemoryContext, align 8
  %6 = load ptr, ptr %3, align 8
  call void @llvm.lifetime.end.p0(i64 8, ptr %3) #8
  ret ptr %6
}

; Function Attrs: nounwind uwtable
define internal ptr @BuildCachedPlan(ptr noundef %0, ptr noundef %1, ptr noundef %2, ptr noundef %3) #0 {
  %5 = alloca ptr, align 8
  %6 = alloca ptr, align 8
  %7 = alloca ptr, align 8
  %8 = alloca ptr, align 8
  %9 = alloca ptr, align 8
  %10 = alloca ptr, align 8
  %11 = alloca i8, align 1
  %12 = alloca i8, align 1
  %13 = alloca ptr, align 8
  %14 = alloca ptr, align 8
  %15 = alloca ptr, align 8
  %16 = alloca i32, align 4
  %17 = alloca %struct.ForEachState, align 8
  %18 = alloca i32, align 4
  %19 = alloca ptr, align 8
  store ptr %0, ptr %5, align 8
  store ptr %1, ptr %6, align 8
  store ptr %2, ptr %7, align 8
  store ptr %3, ptr %8, align 8
  call void @llvm.lifetime.start.p0(i64 8, ptr %9) #8
  call void @llvm.lifetime.start.p0(i64 8, ptr %10) #8
  call void @llvm.lifetime.start.p0(i64 1, ptr %11) #8
  call void @llvm.lifetime.start.p0(i64 1, ptr %12) #8
  call void @llvm.lifetime.start.p0(i64 8, ptr %13) #8
  call void @llvm.lifetime.start.p0(i64 8, ptr %14) #8
  %20 = load ptr, ptr @CurrentMemoryContext, align 8
  store ptr %20, ptr %14, align 8
  call void @llvm.lifetime.start.p0(i64 8, ptr %15) #8
  %21 = load ptr, ptr %5, align 8
  %22 = getelementptr inbounds nuw %struct.CachedPlanSource, ptr %21, i32 0, i32 24
  %23 = load i8, ptr %22, align 1, !range !4, !noundef !5
  %24 = trunc i8 %23 to i1
  br i1 %24, label %29, label %25

25:                                               ; preds = %4
  %26 = load ptr, ptr %5, align 8
  %27 = load ptr, ptr %8, align 8
  %28 = call ptr @RevalidateCachedQuery(ptr noundef %26, ptr noundef %27)
  store ptr %28, ptr %6, align 8
  br label %29

29:                                               ; preds = %25, %4
  %30 = load ptr, ptr %6, align 8
  %31 = icmp eq ptr %30, null
  br i1 %31, label %32, label %47

32:                                               ; preds = %29
  %33 = load ptr, ptr %5, align 8
  %34 = getelementptr inbounds nuw %struct.CachedPlanSource, ptr %33, i32 0, i32 21
  %35 = load i8, ptr %34, align 8, !range !4, !noundef !5
  %36 = trunc i8 %35 to i1
  br i1 %36, label %42, label %37

37:                                               ; preds = %32
  %38 = load ptr, ptr %5, align 8
  %39 = getelementptr inbounds nuw %struct.CachedPlanSource, ptr %38, i32 0, i32 12
  %40 = load ptr, ptr %39, align 8
  %41 = call ptr @copyObjectImpl(ptr noundef %40)
  store ptr %41, ptr %6, align 8
  br label %46

42:                                               ; preds = %32
  %43 = load ptr, ptr %5, align 8
  %44 = getelementptr inbounds nuw %struct.CachedPlanSource, ptr %43, i32 0, i32 12
  %45 = load ptr, ptr %44, align 8
  store ptr %45, ptr %6, align 8
  br label %46

46:                                               ; preds = %42, %37
  br label %47

47:                                               ; preds = %46, %29
  store i8 0, ptr %11, align 1
  %48 = call zeroext i1 @ActiveSnapshotSet()
  br i1 %48, label %61, label %49

49:                                               ; preds = %47
  %50 = load ptr, ptr %5, align 8
  %51 = getelementptr inbounds nuw %struct.CachedPlanSource, ptr %50, i32 0, i32 1
  %52 = load ptr, ptr %51, align 8
  %53 = icmp ne ptr %52, null
  br i1 %53, label %54, label %61

54:                                               ; preds = %49
  %55 = load ptr, ptr %5, align 8
  %56 = getelementptr inbounds nuw %struct.CachedPlanSource, ptr %55, i32 0, i32 1
  %57 = load ptr, ptr %56, align 8
  %58 = call zeroext i1 @analyze_requires_snapshot(ptr noundef %57)
  br i1 %58, label %59, label %61

59:                                               ; preds = %54
  %60 = call ptr @GetTransactionSnapshot()
  call void @PushActiveSnapshot(ptr noundef %60)
  store i8 1, ptr %11, align 1
  br label %61

61:                                               ; preds = %59, %54, %49, %47
  %62 = load ptr, ptr %6, align 8
  %63 = load ptr, ptr %5, align 8
  %64 = getelementptr inbounds nuw %struct.CachedPlanSource, ptr %63, i32 0, i32 2
  %65 = load ptr, ptr %64, align 8
  %66 = load ptr, ptr %5, align 8
  %67 = getelementptr inbounds nuw %struct.CachedPlanSource, ptr %66, i32 0, i32 8
  %68 = load i32, ptr %67, align 8
  %69 = load ptr, ptr %7, align 8
  %70 = call ptr @pg_plan_queries(ptr noundef %62, ptr noundef %65, i32 noundef %68, ptr noundef %69)
  store ptr %70, ptr %10, align 8
  %71 = load i8, ptr %11, align 1, !range !4, !noundef !5
  %72 = trunc i8 %71 to i1
  br i1 %72, label %73, label %74

73:                                               ; preds = %61
  call void @PopActiveSnapshot()
  br label %74

74:                                               ; preds = %73, %61
  %75 = load ptr, ptr %5, align 8
  %76 = getelementptr inbounds nuw %struct.CachedPlanSource, ptr %75, i32 0, i32 21
  %77 = load i8, ptr %76, align 8, !range !4, !noundef !5
  %78 = trunc i8 %77 to i1
  br i1 %78, label %95, label %79

79:                                               ; preds = %74
  br label %80

80:                                               ; preds = %79
  br label %81

81:                                               ; preds = %80
  br label %82

82:                                               ; preds = %81
  store i32 1, ptr %16, align 4
  %83 = load ptr, ptr @CurrentMemoryContext, align 8
  %84 = call ptr @AllocSetContextCreateInternal(ptr noundef %83, ptr noundef @.str.10, i64 noundef 0, i64 noundef 1024, i64 noundef 8388608)
  store ptr %84, ptr %13, align 8
  %85 = load ptr, ptr %13, align 8
  %86 = load ptr, ptr %13, align 8
  %87 = load ptr, ptr %5, align 8
  %88 = getelementptr inbounds nuw %struct.CachedPlanSource, ptr %87, i32 0, i32 2
  %89 = load ptr, ptr %88, align 8
  %90 = call ptr @MemoryContextStrdup(ptr noundef %86, ptr noundef %89)
  call void @MemoryContextSetIdentifier(ptr noundef %85, ptr noundef %90)
  %91 = load ptr, ptr %13, align 8
  %92 = call ptr @MemoryContextSwitchTo(ptr noundef %91)
  %93 = load ptr, ptr %10, align 8
  %94 = call ptr @copyObjectImpl(ptr noundef %93)
  store ptr %94, ptr %10, align 8
  br label %97

95:                                               ; preds = %74
  %96 = load ptr, ptr @CurrentMemoryContext, align 8
  store ptr %96, ptr %13, align 8
  br label %97

97:                                               ; preds = %95, %82
  %98 = call ptr @palloc(i64 noundef 48)
  store ptr %98, ptr %9, align 8
  %99 = load ptr, ptr %9, align 8
  %100 = getelementptr inbounds nuw %struct.CachedPlan, ptr %99, i32 0, i32 0
  store i32 953717834, ptr %100, align 8
  %101 = load ptr, ptr %10, align 8
  %102 = load ptr, ptr %9, align 8
  %103 = getelementptr inbounds nuw %struct.CachedPlan, ptr %102, i32 0, i32 1
  store ptr %101, ptr %103, align 8
  %104 = call i32 @GetUserId()
  %105 = load ptr, ptr %9, align 8
  %106 = getelementptr inbounds nuw %struct.CachedPlan, ptr %105, i32 0, i32 5
  store i32 %104, ptr %106, align 4
  %107 = load ptr, ptr %5, align 8
  %108 = getelementptr inbounds nuw %struct.CachedPlanSource, ptr %107, i32 0, i32 19
  %109 = load i8, ptr %108, align 1, !range !4, !noundef !5
  %110 = trunc i8 %109 to i1
  %111 = load ptr, ptr %9, align 8
  %112 = getelementptr inbounds nuw %struct.CachedPlan, ptr %111, i32 0, i32 6
  %113 = zext i1 %110 to i8
  store i8 %113, ptr %112, align 8
  store i8 0, ptr %12, align 1
  call void @llvm.lifetime.start.p0(i64 16, ptr %17) #8
  %114 = getelementptr inbounds nuw %struct.ForEachState, ptr %17, i32 0, i32 0
  %115 = load ptr, ptr %10, align 8
  store ptr %115, ptr %114, align 8
  %116 = getelementptr inbounds nuw %struct.ForEachState, ptr %17, i32 0, i32 1
  store i32 0, ptr %116, align 8
  %117 = getelementptr i8, ptr %17, i64 12
  call void @llvm.memset.p0.i64(ptr align 4 %117, i8 0, i64 4, i1 false)
  br label %118

118:                                              ; preds = %170, %97
  %119 = getelementptr inbounds nuw %struct.ForEachState, ptr %17, i32 0, i32 0
  %120 = load ptr, ptr %119, align 8
  %121 = icmp ne ptr %120, null
  br i1 %121, label %122, label %139

122:                                              ; preds = %118
  %123 = getelementptr inbounds nuw %struct.ForEachState, ptr %17, i32 0, i32 1
  %124 = load i32, ptr %123, align 8
  %125 = getelementptr inbounds nuw %struct.ForEachState, ptr %17, i32 0, i32 0
  %126 = load ptr, ptr %125, align 8
  %127 = getelementptr inbounds nuw %struct.List, ptr %126, i32 0, i32 1
  %128 = load i32, ptr %127, align 4
  %129 = icmp slt i32 %124, %128
  br i1 %129, label %130, label %139

130:                                              ; preds = %122
  %131 = getelementptr inbounds nuw %struct.ForEachState, ptr %17, i32 0, i32 0
  %132 = load ptr, ptr %131, align 8
  %133 = getelementptr inbounds nuw %struct.List, ptr %132, i32 0, i32 3
  %134 = load ptr, ptr %133, align 8
  %135 = getelementptr inbounds nuw %struct.ForEachState, ptr %17, i32 0, i32 1
  %136 = load i32, ptr %135, align 8
  %137 = sext i32 %136 to i64
  %138 = getelementptr inbounds %union.ListCell, ptr %134, i64 %137
  store ptr %138, ptr %15, align 8
  br label %140

139:                                              ; preds = %122, %118
  store ptr null, ptr %15, align 8
  br label %140

140:                                              ; preds = %139, %130
  %141 = phi i32 [ 1, %130 ], [ 0, %139 ]
  %142 = icmp ne i32 %141, 0
  br i1 %142, label %144, label %143

143:                                              ; preds = %140
  store i32 4, ptr %18, align 4
  call void @llvm.lifetime.end.p0(i64 16, ptr %17) #8
  br label %174

144:                                              ; preds = %140
  call void @llvm.lifetime.start.p0(i64 8, ptr %19) #8
  %145 = load ptr, ptr %15, align 8
  %146 = load ptr, ptr %145, align 8
  store ptr %146, ptr %19, align 8
  %147 = load ptr, ptr %19, align 8
  %148 = getelementptr inbounds nuw %struct.PlannedStmt, ptr %147, i32 0, i32 1
  %149 = load i32, ptr %148, align 4
  %150 = icmp eq i32 %149, 6
  br i1 %150, label %151, label %152

151:                                              ; preds = %144
  store i32 6, ptr %18, align 4
  br label %167

152:                                              ; preds = %144
  %153 = load ptr, ptr %19, align 8
  %154 = getelementptr inbounds nuw %struct.PlannedStmt, ptr %153, i32 0, i32 6
  %155 = load i8, ptr %154, align 1, !range !4, !noundef !5
  %156 = trunc i8 %155 to i1
  br i1 %156, label %157, label %158

157:                                              ; preds = %152
  store i8 1, ptr %12, align 1
  br label %158

158:                                              ; preds = %157, %152
  %159 = load ptr, ptr %19, align 8
  %160 = getelementptr inbounds nuw %struct.PlannedStmt, ptr %159, i32 0, i32 7
  %161 = load i8, ptr %160, align 4, !range !4, !noundef !5
  %162 = trunc i8 %161 to i1
  br i1 %162, label %163, label %166

163:                                              ; preds = %158
  %164 = load ptr, ptr %9, align 8
  %165 = getelementptr inbounds nuw %struct.CachedPlan, ptr %164, i32 0, i32 6
  store i8 1, ptr %165, align 8
  br label %166

166:                                              ; preds = %163, %158
  store i32 0, ptr %18, align 4
  br label %167

167:                                              ; preds = %166, %151
  call void @llvm.lifetime.end.p0(i64 8, ptr %19) #8
  %168 = load i32, ptr %18, align 4
  switch i32 %168, label %210 [
    i32 0, label %169
    i32 6, label %170
  ]

169:                                              ; preds = %167
  br label %170

170:                                              ; preds = %169, %167
  %171 = getelementptr inbounds nuw %struct.ForEachState, ptr %17, i32 0, i32 1
  %172 = load i32, ptr %171, align 8
  %173 = add i32 %172, 1
  store i32 %173, ptr %171, align 8
  br label %118, !llvm.loop !16

174:                                              ; preds = %143
  %175 = load i8, ptr %12, align 1, !range !4, !noundef !5
  %176 = trunc i8 %175 to i1
  br i1 %176, label %177, label %181

177:                                              ; preds = %174
  %178 = load i32, ptr @TransactionXmin, align 4
  %179 = load ptr, ptr %9, align 8
  %180 = getelementptr inbounds nuw %struct.CachedPlan, ptr %179, i32 0, i32 7
  store i32 %178, ptr %180, align 4
  br label %184

181:                                              ; preds = %174
  %182 = load ptr, ptr %9, align 8
  %183 = getelementptr inbounds nuw %struct.CachedPlan, ptr %182, i32 0, i32 7
  store i32 0, ptr %183, align 4
  br label %184

184:                                              ; preds = %181, %177
  %185 = load ptr, ptr %9, align 8
  %186 = getelementptr inbounds nuw %struct.CachedPlan, ptr %185, i32 0, i32 9
  store i32 0, ptr %186, align 4
  %187 = load ptr, ptr %13, align 8
  %188 = load ptr, ptr %9, align 8
  %189 = getelementptr inbounds nuw %struct.CachedPlan, ptr %188, i32 0, i32 10
  store ptr %187, ptr %189, align 8
  %190 = load ptr, ptr %5, align 8
  %191 = getelementptr inbounds nuw %struct.CachedPlanSource, ptr %190, i32 0, i32 21
  %192 = load i8, ptr %191, align 8, !range !4, !noundef !5
  %193 = trunc i8 %192 to i1
  %194 = load ptr, ptr %9, align 8
  %195 = getelementptr inbounds nuw %struct.CachedPlan, ptr %194, i32 0, i32 2
  %196 = zext i1 %193 to i8
  store i8 %196, ptr %195, align 8
  %197 = load ptr, ptr %9, align 8
  %198 = getelementptr inbounds nuw %struct.CachedPlan, ptr %197, i32 0, i32 3
  store i8 0, ptr %198, align 1
  %199 = load ptr, ptr %9, align 8
  %200 = getelementptr inbounds nuw %struct.CachedPlan, ptr %199, i32 0, i32 4
  store i8 1, ptr %200, align 2
  %201 = load ptr, ptr %5, align 8
  %202 = getelementptr inbounds nuw %struct.CachedPlanSource, ptr %201, i32 0, i32 25
  %203 = load i32, ptr %202, align 4
  %204 = add i32 %203, 1
  store i32 %204, ptr %202, align 4
  %205 = load ptr, ptr %9, align 8
  %206 = getelementptr inbounds nuw %struct.CachedPlan, ptr %205, i32 0, i32 8
  store i32 %204, ptr %206, align 8
  %207 = load ptr, ptr %14, align 8
  %208 = call ptr @MemoryContextSwitchTo(ptr noundef %207)
  %209 = load ptr, ptr %9, align 8
  store i32 1, ptr %18, align 4
  call void @llvm.lifetime.end.p0(i64 8, ptr %15) #8
  call void @llvm.lifetime.end.p0(i64 8, ptr %14) #8
  call void @llvm.lifetime.end.p0(i64 8, ptr %13) #8
  call void @llvm.lifetime.end.p0(i64 1, ptr %12) #8
  call void @llvm.lifetime.end.p0(i64 1, ptr %11) #8
  call void @llvm.lifetime.end.p0(i64 8, ptr %10) #8
  call void @llvm.lifetime.end.p0(i64 8, ptr %9) #8
  ret ptr %209

210:                                              ; preds = %167
  unreachable
}