; Function Attrs: nounwind uwtable
define internal fastcc noundef ptr @BuildCachedPlan(ptr noundef %0, ptr noundef %1, ptr noundef %2, ptr noundef %3) unnamed_addr #0 {
  %5 = load ptr, ptr @CurrentMemoryContext, align 8
  %6 = getelementptr inbounds nuw i8, ptr %0, i64 147
  %7 = load i8, ptr %6, align 1, !range !4, !noundef !5
  %8 = trunc nuw i8 %7 to i1
  br i1 %8, label %11, label %9

9:                                                ; preds = %4
  %10 = tail call fastcc ptr @RevalidateCachedQuery(ptr noundef nonnull %0, ptr noundef %3)
  br label %11

11:                                               ; preds = %9, %4
  %.0 = phi ptr [ %1, %4 ], [ %10, %9 ]
  %12 = icmp eq ptr %.0, null
  br i1 %12, label %13, label %21

13:                                               ; preds = %11
  %14 = getelementptr inbounds nuw i8, ptr %0, i64 144
  %15 = load i8, ptr %14, align 8, !range !4, !noundef !5
  %16 = trunc nuw i8 %15 to i1
  %17 = getelementptr inbounds nuw i8, ptr %0, i64 88
  %18 = load ptr, ptr %17, align 8
  br i1 %16, label %21, label %19

19:                                               ; preds = %13
  %20 = tail call ptr @copyObjectImpl(ptr noundef %18) #9
  br label %21

21:                                               ; preds = %13, %19, %11
  %.1 = phi ptr [ %20, %19 ], [ %.0, %11 ], [ %18, %13 ]
  %22 = tail call zeroext i1 @ActiveSnapshotSet() #9
  br i1 %22, label %.thread, label %23

23:                                               ; preds = %21
  %24 = getelementptr inbounds nuw i8, ptr %0, i64 8
  %25 = load ptr, ptr %24, align 8
  %.not = icmp eq ptr %25, null
  br i1 %.not, label %.thread, label %26

26:                                               ; preds = %23
  %27 = tail call zeroext i1 @analyze_requires_snapshot(ptr noundef nonnull %25) #9
  br i1 %27, label %33, label %.thread

.thread:                                          ; preds = %21, %26, %23
  %28 = getelementptr inbounds nuw i8, ptr %0, i64 16
  %29 = load ptr, ptr %28, align 8
  %30 = getelementptr inbounds nuw i8, ptr %0, i64 64
  %31 = load i32, ptr %30, align 8
  %32 = tail call ptr @pg_plan_queries(ptr noundef %.1, ptr noundef %29, i32 noundef %31, ptr noundef %2) #9
  br label %40

33:                                               ; preds = %26
  %34 = tail call ptr @GetTransactionSnapshot() #9
  tail call void @PushActiveSnapshot(ptr noundef %34) #9
  %35 = getelementptr inbounds nuw i8, ptr %0, i64 16
  %36 = load ptr, ptr %35, align 8
  %37 = getelementptr inbounds nuw i8, ptr %0, i64 64
  %38 = load i32, ptr %37, align 8
  %39 = tail call ptr @pg_plan_queries(ptr noundef %.1, ptr noundef %36, i32 noundef %38, ptr noundef %2) #9
  tail call void @PopActiveSnapshot() #9
  br label %40

40:                                               ; preds = %.thread, %33
  %41 = phi ptr [ %32, %.thread ], [ %39, %33 ]
  %42 = phi ptr [ %28, %.thread ], [ %35, %33 ]
  %43 = getelementptr inbounds nuw i8, ptr %0, i64 144
  %44 = load i8, ptr %43, align 8, !range !4, !noundef !5
  %45 = trunc nuw i8 %44 to i1
  %46 = load ptr, ptr @CurrentMemoryContext, align 8
  br i1 %45, label %52, label %47

47:                                               ; preds = %40
  %48 = tail call ptr @AllocSetContextCreateInternal(ptr noundef %46, ptr noundef nonnull @.str.10, i64 noundef 0, i64 noundef 1024, i64 noundef 8388608) #9
  %49 = load ptr, ptr %42, align 8
  %50 = tail call ptr @MemoryContextStrdup(ptr noundef %48, ptr noundef %49) #9
  tail call void @MemoryContextSetIdentifier(ptr noundef %48, ptr noundef %50) #9
  store ptr %48, ptr @CurrentMemoryContext, align 8
  %51 = tail call ptr @copyObjectImpl(ptr noundef %41) #9
  br label %52

52:                                               ; preds = %40, %47
  %.054 = phi ptr [ %48, %47 ], [ %46, %40 ]
  %.049 = phi ptr [ %51, %47 ], [ %41, %40 ]
  %53 = tail call ptr @palloc(i64 noundef 48) #9
  store i32 953717834, ptr %53, align 8
  %54 = getelementptr inbounds nuw i8, ptr %53, i64 8
  store ptr %.049, ptr %54, align 8
  %55 = tail call i32 @GetUserId() #9
  %56 = getelementptr inbounds nuw i8, ptr %53, i64 20
  store i32 %55, ptr %56, align 4
  %57 = getelementptr inbounds nuw i8, ptr %0, i64 133
  %58 = load i8, ptr %57, align 1, !range !4, !noundef !5
  %59 = getelementptr inbounds nuw i8, ptr %53, i64 24
  store i8 %58, ptr %59, align 8
  %60 = getelementptr inbounds nuw i8, ptr %.049, i64 4
  %.not56 = icmp eq ptr %.049, null
  br i1 %.not56, label %.critedge, label %.lr.ph

.lr.ph:                                           ; preds = %52
  %61 = getelementptr inbounds nuw i8, ptr %.049, i64 16
  %62 = load i32, ptr %60, align 4
  %63 = icmp sgt i32 %62, 0
  br i1 %63, label %.lr.ph70, label %.critedge

._crit_edge:                                      ; preds = %80
  %64 = load i32, ptr @TransactionXmin, align 4
  %spec.select73 = select i1 %.152, i32 %64, i32 0
  br label %.critedge

.lr.ph70:                                         ; preds = %.lr.ph, %80
  %65 = phi i32 [ %81, %80 ], [ %62, %.lr.ph ]
  %indvars.iv = phi i64 [ %indvars.iv.next, %80 ], [ 0, %.lr.ph ]
  %.0516369 = phi i1 [ %.152, %80 ], [ false, %.lr.ph ]
  %66 = load ptr, ptr %61, align 8
  %67 = getelementptr inbounds nuw %union.ListCell, ptr %66, i64 %indvars.iv
  %68 = load ptr, ptr %67, align 8
  %69 = getelementptr inbounds nuw i8, ptr %68, i64 4
  %70 = load i32, ptr %69, align 4
  %71 = icmp eq i32 %70, 6
  br i1 %71, label %80, label %72

72:                                               ; preds = %.lr.ph70
  %73 = getelementptr inbounds nuw i8, ptr %68, i64 19
  %74 = load i8, ptr %73, align 1, !range !4, !noundef !5
  %75 = trunc nuw i8 %74 to i1
  %spec.select = select i1 %75, i1 true, i1 %.0516369
  %76 = getelementptr inbounds nuw i8, ptr %68, i64 20
  %77 = load i8, ptr %76, align 4, !range !4, !noundef !5
  %78 = trunc nuw i8 %77 to i1
  br i1 %78, label %79, label %80

79:                                               ; preds = %72
  store i8 1, ptr %59, align 8
  %.pre = load i32, ptr %60, align 4
  br label %80

80:                                               ; preds = %72, %79, %.lr.ph70
  %81 = phi i32 [ %65, %.lr.ph70 ], [ %.pre, %79 ], [ %65, %72 ]
  %.152 = phi i1 [ %.0516369, %.lr.ph70 ], [ %spec.select, %79 ], [ %spec.select, %72 ]
  %indvars.iv.next = add nuw nsw i64 %indvars.iv, 1
  %82 = sext i32 %81 to i64
  %83 = icmp slt i64 %indvars.iv.next, %82
  br i1 %83, label %.lr.ph70, label %._crit_edge

.critedge:                                        ; preds = %._crit_edge, %.lr.ph, %52
  %.sink = phi i32 [ 0, %52 ], [ 0, %.lr.ph ], [ %spec.select73, %._crit_edge ]
  %84 = getelementptr inbounds nuw i8, ptr %53, i64 28
  store i32 %.sink, ptr %84, align 4
  %85 = getelementptr inbounds nuw i8, ptr %53, i64 36
  store i32 0, ptr %85, align 4
  %86 = getelementptr inbounds nuw i8, ptr %53, i64 40
  store ptr %.054, ptr %86, align 8
  %87 = load i8, ptr %43, align 8, !range !4, !noundef !5
  %88 = getelementptr inbounds nuw i8, ptr %53, i64 16
  store i8 %87, ptr %88, align 8
  %89 = getelementptr inbounds nuw i8, ptr %53, i64 17
  store i8 0, ptr %89, align 1
  %90 = getelementptr inbounds nuw i8, ptr %53, i64 18
  store i8 1, ptr %90, align 2
  %91 = getelementptr inbounds nuw i8, ptr %0, i64 148
  %92 = load i32, ptr %91, align 4
  %93 = add i32 %92, 1
  store i32 %93, ptr %91, align 4
  %94 = getelementptr inbounds nuw i8, ptr %53, i64 32
  store i32 %93, ptr %94, align 8
  store ptr %5, ptr @CurrentMemoryContext, align 8
  ret ptr %53
}